target datalayout = "e-m:e-p270:32:32-p271:32:32-p272:64:64-i64:64-i128:128-f80:128-n8:16:32:64-S128"
target triple = "x86_64-pc-linux-gnu"

%struct.SDL_HIDAPI_RumbleContext = type { %struct.SDL_AtomicInt, %struct.SDL_AtomicInt, ptr, ptr, ptr, ptr }
%struct.SDL_AtomicInt = type { i32 }

@rumble_context = internal global %struct.SDL_HIDAPI_RumbleContext zeroinitializer, align 8
@SDL_HIDAPI_rumble_lock = internal global ptr null, align 8
@.str.2 = private unnamed_addr constant [14 x i8] c"HIDAPI Rumble\00", align 1

; Function Attrs: nounwind uwtable
define internal zeroext i1 @SDL_HIDAPI_StartRumbleThread(ptr noundef %0) #0 {
  %2 = alloca i1, align 1
  %3 = alloca ptr, align 8
  store ptr %0, ptr %3, align 8
  %4 = call ptr @SDL_CreateMutex_REAL()
  store ptr %4, ptr @SDL_HIDAPI_rumble_lock, align 8
  %5 = load ptr, ptr @SDL_HIDAPI_rumble_lock, align 8
  %6 = icmp ne ptr %5, null
  br i1 %6, label %9, label %7

7:                                                ; preds = %1
  %8 = load ptr, ptr %3, align 8
  call void @SDL_HIDAPI_StopRumbleThread(ptr noundef %8)
  store i1 false, ptr %2, align 1
  br label %34

9:                                                ; preds = %1
  %10 = call ptr @SDL_CreateSemaphore_REAL(i32 noundef 0)
  %11 = load ptr, ptr %3, align 8
  %12 = getelementptr inbounds nuw %struct.SDL_HIDAPI_RumbleContext, ptr %11, i32 0, i32 3
  store ptr %10, ptr %12, align 8
  %13 = load ptr, ptr %3, align 8
  %14 = getelementptr inbounds nuw %struct.SDL_HIDAPI_RumbleContext, ptr %13, i32 0, i32 3
  %15 = load ptr, ptr %14, align 8
  %16 = icmp ne ptr %15, null
  br i1 %16, label %19, label %17

17:                                               ; preds = %9
  %18 = load ptr, ptr %3, align 8
  call void @SDL_HIDAPI_StopRumbleThread(ptr noundef %18)
  store i1 false, ptr %2, align 1
  br label %34

19:                                               ; preds = %9
  %20 = load ptr, ptr %3, align 8
  %21 = getelementptr inbounds nuw %struct.SDL_HIDAPI_RumbleContext, ptr %20, i32 0, i32 1
  %22 = call i32 @SDL_SetAtomicInt_REAL(ptr noundef %21, i32 noundef 1)
  %23 = load ptr, ptr %3, align 8
  %24 = call ptr @SDL_CreateThreadRuntime_REAL(ptr noundef @SDL_HIDAPI_RumbleThread, ptr noundef @.str.2, ptr noundef %23, ptr noundef null, ptr noundef null)
  %25 = load ptr, ptr %3, align 8
  %26 = getelementptr inbounds nuw %struct.SDL_HIDAPI_RumbleContext, ptr %25, i32 0, i32 2
  store ptr %24, ptr %26, align 8
  %27 = load ptr, ptr %3, align 8
  %28 = getelementptr inbounds nuw %struct.SDL_HIDAPI_RumbleContext, ptr %27, i32 0, i32 2
  %29 = load ptr, ptr %28, align 8
  %30 = icmp ne ptr %29, null
  br i1 %30, label %33, label %31

31:                                               ; preds = %19
  %32 = load ptr, ptr %3, align 8
  call void @SDL_HIDAPI_StopRumbleThread(ptr noundef %32)
  store i1 false, ptr %2, align 1
  br label %34

33:                                               ; preds = %19
  store i1 true, ptr %2, align 1
  br label %34

34:                                               ; preds = %33, %31, %17, %7
  %35 = load i1, ptr %2, align 1
  ret i1 %35
}

; Function Attrs: nounwind uwtable
define hidden zeroext i1 @SDL_HIDAPI_LockRumble() #0 {
  %1 = alloca i1, align 1
  %2 = alloca ptr, align 8
  %3 = alloca i32, align 4
  call void @llvm.lifetime.start.p0(i64 8, ptr %2) #5
  store ptr @rumble_context, ptr %2, align 8
  %4 = load ptr, ptr %2, align 8
  %5 = getelementptr inbounds nuw %struct.SDL_HIDAPI_RumbleContext, ptr %4, i32 0, i32 0
  %6 = call zeroext i1 @SDL_CompareAndSwapAtomicInt_REAL(ptr noundef %5, i32 noundef 0, i32 noundef 1)
  br i1 %6, label %7, label %12

7:                                                ; preds = %0
  %8 = load ptr, ptr %2, align 8
  %9 = call zeroext i1 @SDL_HIDAPI_StartRumbleThread(ptr noundef %8)
  br i1 %9, label %11, label %10

10:                                               ; preds = %7
  store i1 false, ptr %1, align 1
  store i32 1, ptr %3, align 4
  br label %14

11:                                               ; preds = %7
  br label %12

12:                                               ; preds = %11, %0
  %13 = load ptr, ptr @SDL_HIDAPI_rumble_lock, align 8
  call void @SDL_LockMutex_REAL(ptr noundef %13)
  store i1 true, ptr %1, align 1
  store i32 1, ptr %3, align 4
  br label %14

14:                                               ; preds = %12, %10
  call void @llvm.lifetime.end.p0(i64 8, ptr %2) #5
  %15 = load i1, ptr %1, align 1
  ret i1 %15
}