; Function Attrs: nounwind uwtable
define hidden noundef zeroext i1 @SDL_HIDAPI_LockRumble() local_unnamed_addr #0 {
  %1 = tail call zeroext i1 @SDL_CompareAndSwapAtomicInt_REAL(ptr noundef nonnull @rumble_context, i32 noundef 0, i32 noundef 1) #6
  br i1 %1, label %2, label %SDL_HIDAPI_StartRumbleThread.exit.thread

2:                                                ; preds = %0
  %3 = tail call ptr @SDL_CreateMutex_REAL() #6
  store ptr %3, ptr @SDL_HIDAPI_rumble_lock, align 8
  %.not.i = icmp eq ptr %3, null
  br i1 %.not.i, label %SDL_HIDAPI_StartRumbleThread.exit, label %4

4:                                                ; preds = %2
  %5 = tail call ptr @SDL_CreateSemaphore_REAL(i32 noundef 0) #6
  store ptr %5, ptr getelementptr inbounds nuw (i8, ptr @rumble_context, i64 16), align 8
  %.not10.i = icmp eq ptr %5, null
  br i1 %.not10.i, label %SDL_HIDAPI_StartRumbleThread.exit, label %6

6:                                                ; preds = %4
  %7 = tail call i32 @SDL_SetAtomicInt_REAL(ptr noundef nonnull getelementptr inbounds nuw (i8, ptr @rumble_context, i64 4), i32 noundef 1) #6
  %8 = tail call ptr @SDL_CreateThreadRuntime_REAL(ptr noundef nonnull @SDL_HIDAPI_RumbleThread, ptr noundef nonnull @.str.2, ptr noundef nonnull @rumble_context, ptr noundef null, ptr noundef null) #6
  store ptr %8, ptr getelementptr inbounds nuw (i8, ptr @rumble_context, i64 8), align 8
  %.not11.i = icmp eq ptr %8, null
  br i1 %.not11.i, label %SDL_HIDAPI_StartRumbleThread.exit, label %SDL_HIDAPI_StartRumbleThread.exit.thread

SDL_HIDAPI_StartRumbleThread.exit:                ; preds = %2, %4, %6
  tail call fastcc void @SDL_HIDAPI_StopRumbleThread()
  br label %10

SDL_HIDAPI_StartRumbleThread.exit.thread:         ; preds = %6, %0
  %9 = load ptr, ptr @SDL_HIDAPI_rumble_lock, align 8
  tail call void @SDL_LockMutex_REAL(ptr noundef %9) #6
  br label %10

10:                                               ; preds = %SDL_HIDAPI_StartRumbleThread.exit, %SDL_HIDAPI_StartRumbleThread.exit.thread
  %.0 = phi i1 [ true, %SDL_HIDAPI_StartRumbleThread.exit.thread ], [ false, %SDL_HIDAPI_StartRumbleThread.exit ]
  ret i1 %.0
}